target datalayout = "e-m:e-p270:32:32-p271:32:32-p272:64:64-i64:64-i128:128-f80:128-n8:16:32:64-S128"
target triple = "x86_64-pc-linux-gnu"

%struct.IDAMemRec = type { double, ptr, ptr, i32, double, double, ptr, i32, ptr, ptr, i32, ptr, ptr, i32, i32, double, double, ptr, i32, i32, i32, ptr, ptr, i32, ptr, ptr, ptr, i32, double, i32, i32, double, ptr, ptr, i32, ptr, ptr, i32, i32, i32, double, ptr, ptr, [6 x ptr], [6 x double], [6 x double], [6 x double], [6 x double], [6 x double], ptr, ptr, ptr, ptr, ptr, ptr, ptr, ptr, ptr, ptr, ptr, ptr, ptr, ptr, ptr, [6 x ptr], ptr, ptr, ptr, ptr, [6 x ptr], ptr, ptr, ptr, ptr, ptr, ptr, ptr, ptr, ptr, ptr, ptr, ptr, ptr, ptr, [6 x ptr], ptr, ptr, ptr, ptr, ptr, double, ptr, ptr, i32, i32, i32, i32, i32, i32, i32, double, double, double, i32, double, i32, i32, i32, i32, double, double, double, double, double, double, double, double, double, double, double, double, double, double, i32, i32, i32, i32, i32, i64, double, i32, i64, i64, i64, i64, i64, i64, i64, i64, i64, i64, i64, i64, i64, i64, i64, i64, i64, i64, i64, i64, i64, i64, i64, i64, ptr, ptr, ptr, i32, i32, i32, i32, i32, i32, i32, i32, i32, i32, i32, i32, i32, ptr, ptr, ptr, ptr, ptr, ptr, i32, i32, i32, i32, i32, i32, double, double, double, ptr, i32, ptr, ptr, double, double, double, ptr, ptr, ptr, double, double, i32, i32, i64, ptr, i32, i32, ptr, i32 }
%struct.IDASpilsMemRec = type { i32, i32, double, i32, i32, double, double, double, i64, i64, i64, i64, i64, i64, i64, i64, i64, i64, i64, i64, ptr, ptr, ptr, ptr, ptr, ptr, ptr, i64, ptr, ptr, ptr, ptr, i32, ptr, ptr }

; Function Attrs: nounwind uwtable
define internal i32 @IDASpgmrInit(ptr noundef %0) #0 {
  %2 = alloca ptr, align 8
  %3 = alloca ptr, align 8
  store ptr %0, ptr %2, align 8, !tbaa !9
  call void @llvm.lifetime.start.p0(i64 8, ptr %3) #5
  %4 = load ptr, ptr %2, align 8, !tbaa !9
  %5 = getelementptr inbounds nuw %struct.IDAMemRec, ptr %4, i32 0, i32 176
  %6 = load ptr, ptr %5, align 8, !tbaa !57
  store ptr %6, ptr %3, align 8, !tbaa !31
  %7 = load ptr, ptr %3, align 8, !tbaa !31
  %8 = getelementptr inbounds nuw %struct.IDASpilsMemRec, ptr %7, i32 0, i32 11
  store i64 0, ptr %8, align 8, !tbaa !58
  %9 = load ptr, ptr %3, align 8, !tbaa !31
  %10 = getelementptr inbounds nuw %struct.IDASpilsMemRec, ptr %9, i32 0, i32 10
  store i64 0, ptr %10, align 8, !tbaa !59
  %11 = load ptr, ptr %3, align 8, !tbaa !31
  %12 = getelementptr inbounds nuw %struct.IDASpilsMemRec, ptr %11, i32 0, i32 9
  store i64 0, ptr %12, align 8, !tbaa !60
  %13 = load ptr, ptr %3, align 8, !tbaa !31
  %14 = getelementptr inbounds nuw %struct.IDASpilsMemRec, ptr %13, i32 0, i32 8
  store i64 0, ptr %14, align 8, !tbaa !61
  %15 = load ptr, ptr %3, align 8, !tbaa !31
  %16 = getelementptr inbounds nuw %struct.IDASpilsMemRec, ptr %15, i32 0, i32 12
  store i64 0, ptr %16, align 8, !tbaa !62
  %17 = load ptr, ptr %3, align 8, !tbaa !31
  %18 = getelementptr inbounds nuw %struct.IDASpilsMemRec, ptr %17, i32 0, i32 13
  store i64 0, ptr %18, align 8, !tbaa !63
  %19 = load ptr, ptr %3, align 8, !tbaa !31
  %20 = getelementptr inbounds nuw %struct.IDASpilsMemRec, ptr %19, i32 0, i32 29
  %21 = load ptr, ptr %20, align 8, !tbaa !40
  %22 = icmp ne ptr %21, null
  br i1 %22, label %23, label %28

23:                                               ; preds = %1
  %24 = load ptr, ptr %3, align 8, !tbaa !31
  %25 = getelementptr inbounds nuw %struct.IDASpilsMemRec, ptr %24, i32 0, i32 28
  %26 = load ptr, ptr %25, align 8, !tbaa !39
  %27 = icmp ne ptr %26, null
  br label %28

28:                                               ; preds = %23, %1
  %29 = phi i1 [ false, %1 ], [ %27, %23 ]
  %30 = zext i1 %29 to i32
  %31 = load ptr, ptr %2, align 8, !tbaa !9
  %32 = getelementptr inbounds nuw %struct.IDAMemRec, ptr %31, i32 0, i32 179
  store i32 %30, ptr %32, align 8, !tbaa !49
  %33 = load ptr, ptr %3, align 8, !tbaa !31
  %34 = getelementptr inbounds nuw %struct.IDASpilsMemRec, ptr %33, i32 0, i32 32
  %35 = load i32, ptr %34, align 8, !tbaa !36
  %36 = icmp ne i32 %35, 0
  br i1 %36, label %37, label %43

37:                                               ; preds = %28
  %38 = load ptr, ptr %3, align 8, !tbaa !31
  %39 = getelementptr inbounds nuw %struct.IDASpilsMemRec, ptr %38, i32 0, i32 33
  store ptr @IDASpilsDQJtimes, ptr %39, align 8, !tbaa !37
  %40 = load ptr, ptr %2, align 8, !tbaa !9
  %41 = load ptr, ptr %3, align 8, !tbaa !31
  %42 = getelementptr inbounds nuw %struct.IDASpilsMemRec, ptr %41, i32 0, i32 34
  store ptr %40, ptr %42, align 8, !tbaa !38
  br label %49

43:                                               ; preds = %28
  %44 = load ptr, ptr %2, align 8, !tbaa !9
  %45 = getelementptr inbounds nuw %struct.IDAMemRec, ptr %44, i32 0, i32 2
  %46 = load ptr, ptr %45, align 8, !tbaa !42
  %47 = load ptr, ptr %3, align 8, !tbaa !31
  %48 = getelementptr inbounds nuw %struct.IDASpilsMemRec, ptr %47, i32 0, i32 34
  store ptr %46, ptr %48, align 8, !tbaa !38
  br label %49

49:                                               ; preds = %43, %37
  %50 = load ptr, ptr %3, align 8, !tbaa !31
  %51 = getelementptr inbounds nuw %struct.IDASpilsMemRec, ptr %50, i32 0, i32 27
  store i64 0, ptr %51, align 8, !tbaa !48
  call void @llvm.lifetime.end.p0(i64 8, ptr %3) #5
  ret i32 0
}