; Function Attrs: mustprogress nofree norecurse nosync nounwind willreturn memory(readwrite, inaccessiblemem: none) uwtable
define internal noundef i32 @IDASpgmrInit(ptr noundef initializes((1648, 1652)) %0) #3 {
  %2 = getelementptr inbounds nuw i8, ptr %0, i64 1632
  %3 = load ptr, ptr %2, align 8, !tbaa !44
  %4 = getelementptr inbounds nuw i8, ptr %3, i64 48
  %5 = getelementptr inbounds nuw i8, ptr %3, i64 216
  tail call void @llvm.memset.p0.i64(ptr noundef nonnull align 8 dereferenceable(48) %4, i8 0, i64 48, i1 false)
  %6 = load ptr, ptr %5, align 8, !tbaa !45
  %.not = icmp eq ptr %6, null
  br i1 %.not, label %12, label %7

7:                                                ; preds = %1
  %8 = getelementptr inbounds nuw i8, ptr %3, i64 208
  %9 = load ptr, ptr %8, align 8, !tbaa !46
  %10 = icmp ne ptr %9, null
  %11 = zext i1 %10 to i32
  br label %12

12:                                               ; preds = %7, %1
  %13 = phi i32 [ 0, %1 ], [ %11, %7 ]
  %14 = getelementptr inbounds nuw i8, ptr %0, i64 1648
  store i32 %13, ptr %14, align 8, !tbaa !38
  %15 = getelementptr inbounds nuw i8, ptr %3, i64 240
  %16 = load i32, ptr %15, align 8, !tbaa !30
  %.not17 = icmp eq i32 %16, 0
  br i1 %.not17, label %19, label %17

17:                                               ; preds = %12
  %18 = getelementptr inbounds nuw i8, ptr %3, i64 248
  store ptr @IDASpilsDQJtimes, ptr %18, align 8, !tbaa !47
  br label %22

19:                                               ; preds = %12
  %20 = getelementptr inbounds nuw i8, ptr %0, i64 16
  %21 = load ptr, ptr %20, align 8, !tbaa !31
  br label %22

22:                                               ; preds = %19, %17
  %.sink = phi ptr [ %21, %19 ], [ %0, %17 ]
  %23 = getelementptr inbounds nuw i8, ptr %3, i64 256
  store ptr %.sink, ptr %23, align 8, !tbaa !48
  %24 = getelementptr inbounds nuw i8, ptr %3, i64 200
  store i64 0, ptr %24, align 8, !tbaa !37
  ret i32 0
}